target datalayout = "e-m:e-p270:32:32-p271:32:32-p272:64:64-i64:64-i128:128-f80:128-n8:16:32:64-S128"
target triple = "x86_64-pc-linux-gnu"

%struct.Min_Cube_t_ = type { ptr, i32, [1 x i32] }
%struct.Abc_Obj_t_ = type { ptr, ptr, i32, i32, %struct.Vec_Int_t_, %struct.Vec_Int_t_, %union.anon, %union.anon.0 }
%struct.Vec_Int_t_ = type { i32, i32, ptr }
%union.anon = type { ptr }
%union.anon.0 = type { ptr }
%struct.Abc_Ntk_t_ = type { i32, i32, ptr, ptr, ptr, ptr, ptr, ptr, ptr, ptr, ptr, ptr, ptr, [11 x i32], i32, i32, i32, i32, ptr, i32, ptr, ptr, i32, i32, i32, double, i32, %struct.Vec_Int_t_, ptr, ptr, ptr, ptr, ptr, float, i32, ptr, ptr, ptr, ptr, ptr, ptr, ptr, ptr, ptr, ptr, ptr, ptr, ptr, ptr, ptr, ptr, ptr, ptr, ptr, ptr, ptr, ptr }
%struct.Cov_Obj_t_ = type { [3 x ptr], ptr }
%struct.Vec_Ptr_t_ = type { i32, i32, ptr }
%struct.Cov_Man_t_ = type { i32, i32, i32, ptr, ptr, ptr, ptr, i32, i32, ptr, ptr, ptr, ptr, ptr, ptr, i32, i32, i32, i32 }

; Function Attrs: inlinehint nounwind uwtable
define internal ptr @Vec_PtrEntry(ptr noundef %0, i32 noundef %1) #3 {
  %3 = alloca ptr, align 8
  %4 = alloca i32, align 4
  store ptr %0, ptr %3, align 8, !tbaa !72
  store i32 %1, ptr %4, align 4, !tbaa !14
  %5 = load ptr, ptr %3, align 8, !tbaa !72
  %6 = getelementptr inbounds nuw %struct.Vec_Ptr_t_, ptr %5, i32 0, i32 2
  %7 = load ptr, ptr %6, align 8, !tbaa !53
  %8 = load i32, ptr %4, align 4, !tbaa !14
  %9 = sext i32 %8 to i64
  %10 = getelementptr inbounds ptr, ptr %7, i64 %9
  %11 = load ptr, ptr %10, align 8, !tbaa !56
  ret ptr %11
}

; Function Attrs: inlinehint nounwind uwtable
define internal ptr @Abc_ObjGetStr(ptr noundef %0) #3 {
  %2 = alloca ptr, align 8
  store ptr %0, ptr %2, align 8, !tbaa !8
  %3 = load ptr, ptr %2, align 8, !tbaa !8
  %4 = getelementptr inbounds nuw %struct.Abc_Obj_t_, ptr %3, i32 0, i32 0
  %5 = load ptr, ptr %4, align 8, !tbaa !16
  %6 = getelementptr inbounds nuw %struct.Abc_Ntk_t_, ptr %5, i32 0, i32 32
  %7 = load ptr, ptr %6, align 8, !tbaa !73
  %8 = getelementptr inbounds nuw %struct.Cov_Man_t_, ptr %7, i32 0, i32 4
  %9 = load ptr, ptr %8, align 8, !tbaa !74
  %10 = load ptr, ptr %2, align 8, !tbaa !8
  %11 = getelementptr inbounds nuw %struct.Abc_Obj_t_, ptr %10, i32 0, i32 2
  %12 = load i32, ptr %11, align 8, !tbaa !77
  %13 = call ptr @Vec_PtrEntry(ptr noundef %9, i32 noundef %12)
  ret ptr %13
}

; Function Attrs: inlinehint nounwind uwtable
define internal ptr @Abc_NtkCreateNode(ptr noundef %0) #3 {
  %2 = alloca ptr, align 8
  store ptr %0, ptr %2, align 8, !tbaa !3
  %3 = load ptr, ptr %2, align 8, !tbaa !3
  %4 = call ptr @Abc_NtkCreateObj(ptr noundef %3, i32 noundef 7)
  ret ptr %4
}

; Function Attrs: inlinehint nounwind uwtable
define internal i32 @Min_CoverCountCubes(ptr noundef %0) #3 {
  %2 = alloca ptr, align 8
  %3 = alloca ptr, align 8
  %4 = alloca i32, align 4
  store ptr %0, ptr %2, align 8, !tbaa !10
  call void @llvm.lifetime.start.p0(i64 8, ptr %3) #7
  call void @llvm.lifetime.start.p0(i64 4, ptr %4) #7
  store i32 0, ptr %4, align 4, !tbaa !14
  %5 = load ptr, ptr %2, align 8, !tbaa !10
  store ptr %5, ptr %3, align 8, !tbaa !10
  br label %6

6:                                                ; preds = %12, %1
  %7 = load ptr, ptr %3, align 8, !tbaa !10
  %8 = icmp ne ptr %7, null
  br i1 %8, label %9, label %16

9:                                                ; preds = %6
  %10 = load i32, ptr %4, align 4, !tbaa !14
  %11 = add nsw i32 %10, 1
  store i32 %11, ptr %4, align 4, !tbaa !14
  br label %12

12:                                               ; preds = %9
  %13 = load ptr, ptr %3, align 8, !tbaa !10
  %14 = getelementptr inbounds nuw %struct.Min_Cube_t_, ptr %13, i32 0, i32 0
  %15 = load ptr, ptr %14, align 8, !tbaa !45
  store ptr %15, ptr %3, align 8, !tbaa !10
  br label %6, !llvm.loop !50

16:                                               ; preds = %6
  %17 = load i32, ptr %4, align 4, !tbaa !14
  call void @llvm.lifetime.end.p0(i64 4, ptr %4) #7
  call void @llvm.lifetime.end.p0(i64 8, ptr %3) #7
  ret i32 %17
}

; Function Attrs: inlinehint nounwind uwtable
define internal ptr @Abc_NtkObj(ptr noundef %0, i32 noundef %1) #3 {
  %3 = alloca ptr, align 8
  %4 = alloca i32, align 4
  store ptr %0, ptr %3, align 8, !tbaa !3
  store i32 %1, ptr %4, align 4, !tbaa !14
  %5 = load ptr, ptr %3, align 8, !tbaa !3
  %6 = getelementptr inbounds nuw %struct.Abc_Ntk_t_, ptr %5, i32 0, i32 5
  %7 = load ptr, ptr %6, align 8, !tbaa !41
  %8 = load i32, ptr %4, align 4, !tbaa !14
  %9 = call ptr @Vec_PtrEntry(ptr noundef %7, i32 noundef %8)
  ret ptr %9
}

; Function Attrs: inlinehint nounwind uwtable
define internal i32 @Vec_IntEntry(ptr noundef %0, i32 noundef %1) #3 {
  %3 = alloca ptr, align 8
  %4 = alloca i32, align 4
  store ptr %0, ptr %3, align 8, !tbaa !12
  store i32 %1, ptr %4, align 4, !tbaa !14
  %5 = load ptr, ptr %3, align 8, !tbaa !12
  %6 = getelementptr inbounds nuw %struct.Vec_Int_t_, ptr %5, i32 0, i32 2
  %7 = load ptr, ptr %6, align 8, !tbaa !37
  %8 = load i32, ptr %4, align 4, !tbaa !14
  %9 = sext i32 %8 to i64
  %10 = getelementptr inbounds i32, ptr %7, i64 %9
  %11 = load i32, ptr %10, align 4, !tbaa !14
  ret i32 %11
}

; Function Attrs: inlinehint nounwind uwtable
define internal i32 @Vec_IntSize(ptr noundef %0) #3 {
  %2 = alloca ptr, align 8
  store ptr %0, ptr %2, align 8, !tbaa !12
  %3 = load ptr, ptr %2, align 8, !tbaa !12
  %4 = getelementptr inbounds nuw %struct.Vec_Int_t_, ptr %3, i32 0, i32 1
  %5 = load i32, ptr %4, align 4, !tbaa !21
  ret i32 %5
}

; Function Attrs: inlinehint nounwind uwtable
define internal ptr @Abc_ObjGetCover2(ptr noundef %0) #3 {
  %2 = alloca ptr, align 8
  store ptr %0, ptr %2, align 8, !tbaa !8
  %3 = load ptr, ptr %2, align 8, !tbaa !8
  %4 = call ptr @Abc_ObjGetStr(ptr noundef %3)
  %5 = getelementptr inbounds nuw %struct.Cov_Obj_t_, ptr %4, i32 0, i32 0
  %6 = getelementptr inbounds [3 x ptr], ptr %5, i64 0, i64 2
  %7 = load ptr, ptr %6, align 8, !tbaa !10
  ret ptr %7
}

; Function Attrs: inlinehint nounwind uwtable
define internal ptr @Abc_ObjGetSupp(ptr noundef %0) #3 {
  %2 = alloca ptr, align 8
  store ptr %0, ptr %2, align 8, !tbaa !8
  %3 = load ptr, ptr %2, align 8, !tbaa !8
  %4 = call ptr @Abc_ObjGetStr(ptr noundef %3)
  %5 = getelementptr inbounds nuw %struct.Cov_Obj_t_, ptr %4, i32 0, i32 1
  %6 = load ptr, ptr %5, align 8, !tbaa !48
  ret ptr %6
}

; Function Attrs: inlinehint nounwind uwtable
define internal i32 @Abc_ObjIsCi(ptr noundef %0) #3 {
  %2 = alloca ptr, align 8
  store ptr %0, ptr %2, align 8, !tbaa !8
  %3 = load ptr, ptr %2, align 8, !tbaa !8
  %4 = getelementptr inbounds nuw %struct.Abc_Obj_t_, ptr %3, i32 0, i32 3
  %5 = load i32, ptr %4, align 4
  %6 = and i32 %5, 15
  %7 = icmp eq i32 %6, 2
  br i1 %7, label %14, label %8

8:                                                ; preds = %1
  %9 = load ptr, ptr %2, align 8, !tbaa !8
  %10 = getelementptr inbounds nuw %struct.Abc_Obj_t_, ptr %9, i32 0, i32 3
  %11 = load i32, ptr %10, align 4
  %12 = and i32 %11, 15
  %13 = icmp eq i32 %12, 5
  br label %14

14:                                               ; preds = %8, %1
  %15 = phi i1 [ true, %1 ], [ %13, %8 ]
  %16 = zext i1 %15 to i32
  ret i32 %16
}

; Function Attrs: nounwind uwtable
define ptr @Abc_NtkCovDeriveNode_rec(ptr noundef %0, ptr noundef %1, ptr noundef %2, i32 noundef %3) #0 {
  %5 = alloca ptr, align 8
  %6 = alloca ptr, align 8
  %7 = alloca ptr, align 8
  %8 = alloca ptr, align 8
  %9 = alloca i32, align 4
  %10 = alloca ptr, align 8
  %11 = alloca ptr, align 8
  %12 = alloca ptr, align 8
  %13 = alloca ptr, align 8
  %14 = alloca ptr, align 8
  %15 = alloca ptr, align 8
  %16 = alloca i32, align 4
  %17 = alloca i32, align 4
  %18 = alloca i32, align 4
  %19 = alloca i32, align 4
  store ptr %0, ptr %6, align 8, !tbaa !42
  store ptr %1, ptr %7, align 8, !tbaa !3
  store ptr %2, ptr %8, align 8, !tbaa !8
  store i32 %3, ptr %9, align 4, !tbaa !14
  call void @llvm.lifetime.start.p0(i64 8, ptr %10) #7
  store ptr null, ptr %10, align 8, !tbaa !10
  call void @llvm.lifetime.start.p0(i64 8, ptr %11) #7
  call void @llvm.lifetime.start.p0(i64 8, ptr %12) #7
  call void @llvm.lifetime.start.p0(i64 8, ptr %13) #7
  call void @llvm.lifetime.start.p0(i64 8, ptr %14) #7
  call void @llvm.lifetime.start.p0(i64 8, ptr %15) #7
  call void @llvm.lifetime.start.p0(i64 4, ptr %16) #7
  call void @llvm.lifetime.start.p0(i64 4, ptr %17) #7
  call void @llvm.lifetime.start.p0(i64 4, ptr %18) #7
  %20 = load ptr, ptr %8, align 8, !tbaa !8
  %21 = call i32 @Abc_ObjIsCi(ptr noundef %20)
  %22 = icmp ne i32 %21, 0
  br i1 %22, label %23, label %27

23:                                               ; preds = %4
  %24 = load ptr, ptr %8, align 8, !tbaa !8
  %25 = getelementptr inbounds nuw %struct.Abc_Obj_t_, ptr %24, i32 0, i32 7
  %26 = load ptr, ptr %25, align 8, !tbaa !20
  store ptr %26, ptr %5, align 8
  store i32 1, ptr %19, align 4
  br label %117

27:                                               ; preds = %4
  %28 = load ptr, ptr %8, align 8, !tbaa !8
  %29 = getelementptr inbounds nuw %struct.Abc_Obj_t_, ptr %28, i32 0, i32 7
  %30 = load ptr, ptr %29, align 8, !tbaa !20
  %31 = icmp ne ptr %30, null
  br i1 %31, label %32, label %36

32:                                               ; preds = %27
  %33 = load ptr, ptr %8, align 8, !tbaa !8
  %34 = getelementptr inbounds nuw %struct.Abc_Obj_t_, ptr %33, i32 0, i32 7
  %35 = load ptr, ptr %34, align 8, !tbaa !20
  store ptr %35, ptr %5, align 8
  store i32 1, ptr %19, align 4
  br label %117

36:                                               ; preds = %27
  %37 = load ptr, ptr %8, align 8, !tbaa !8
  %38 = call ptr @Abc_ObjGetSupp(ptr noundef %37)
  store ptr %38, ptr %15, align 8, !tbaa !12
  %39 = load ptr, ptr %8, align 8, !tbaa !8
  %40 = call ptr @Abc_ObjGetCover2(ptr noundef %39)
  store ptr %40, ptr %10, align 8, !tbaa !10
  store i32 0, ptr %18, align 4, !tbaa !14
  br label %41

41:                                               ; preds = %64, %36
  %42 = load i32, ptr %18, align 4, !tbaa !14
  %43 = load ptr, ptr %15, align 8, !tbaa !12
  %44 = call i32 @Vec_IntSize(ptr noundef %43)
  %45 = icmp slt i32 %42, %44
  br i1 %45, label %46, label %50

46:                                               ; preds = %41
  %47 = load ptr, ptr %15, align 8, !tbaa !12
  %48 = load i32, ptr %18, align 4, !tbaa !14
  %49 = call i32 @Vec_IntEntry(ptr noundef %47, i32 noundef %48)
  store i32 %49, ptr %16, align 4, !tbaa !14
  br label %50

50:                                               ; preds = %46, %41
  %51 = phi i1 [ false, %41 ], [ true, %46 ]
  br i1 %51, label %52, label %67

52:                                               ; preds = %50
  %53 = load ptr, ptr %8, align 8, !tbaa !8
  %54 = getelementptr inbounds nuw %struct.Abc_Obj_t_, ptr %53, i32 0, i32 0
  %55 = load ptr, ptr %54, align 8, !tbaa !16
  %56 = load i32, ptr %16, align 4, !tbaa !14
  %57 = call ptr @Abc_NtkObj(ptr noundef %55, i32 noundef %56)
  store ptr %57, ptr %14, align 8, !tbaa !8
  %58 = load ptr, ptr %6, align 8, !tbaa !42
  %59 = load ptr, ptr %7, align 8, !tbaa !3
  %60 = load ptr, ptr %14, align 8, !tbaa !8
  %61 = load i32, ptr %9, align 4, !tbaa !14
  %62 = add nsw i32 %61, 1
  %63 = call ptr @Abc_NtkCovDeriveNode_rec(ptr noundef %58, ptr noundef %59, ptr noundef %60, i32 noundef %62)
  br label %64

64:                                               ; preds = %52
  %65 = load i32, ptr %18, align 4, !tbaa !14
  %66 = add nsw i32 %65, 1
  store i32 %66, ptr %18, align 4, !tbaa !14
  br label %41, !llvm.loop !44

67:                                               ; preds = %50
  %68 = load ptr, ptr %10, align 8, !tbaa !10
  %69 = call i32 @Min_CoverCountCubes(ptr noundef %68)
  store i32 %69, ptr %17, align 4, !tbaa !14
  %70 = load i32, ptr %17, align 4, !tbaa !14
  %71 = icmp eq i32 %70, 0
  br i1 %71, label %72, label %75

72:                                               ; preds = %67
  %73 = load ptr, ptr %7, align 8, !tbaa !3
  %74 = call ptr @Abc_NtkCreateNodeConst0(ptr noundef %73)
  store ptr %74, ptr %13, align 8, !tbaa !8
  br label %112

75:                                               ; preds = %67
  %76 = load i32, ptr %17, align 4, !tbaa !14
  %77 = icmp eq i32 %76, 1
  br i1 %77, label %78, label %84

78:                                               ; preds = %75
  %79 = load ptr, ptr %7, align 8, !tbaa !3
  %80 = load ptr, ptr %8, align 8, !tbaa !8
  %81 = load ptr, ptr %10, align 8, !tbaa !10
  %82 = load ptr, ptr %15, align 8, !tbaa !12
  %83 = call ptr @Abc_NtkCovDeriveCube(ptr noundef %79, ptr noundef %80, ptr noundef %81, ptr noundef %82, i32 noundef 0)
  store ptr %83, ptr %13, align 8, !tbaa !8
  br label %111

84:                                               ; preds = %75
  %85 = load ptr, ptr %7, align 8, !tbaa !3
  %86 = call ptr @Abc_NtkCreateNode(ptr noundef %85)
  store ptr %86, ptr %13, align 8, !tbaa !8
  %87 = load ptr, ptr %10, align 8, !tbaa !10
  store ptr %87, ptr %11, align 8, !tbaa !10
  br label %88

88:                                               ; preds = %99, %84
  %89 = load ptr, ptr %11, align 8, !tbaa !10
  %90 = icmp ne ptr %89, null
  br i1 %90, label %91, label %103

91:                                               ; preds = %88
  %92 = load ptr, ptr %7, align 8, !tbaa !3
  %93 = load ptr, ptr %8, align 8, !tbaa !8
  %94 = load ptr, ptr %11, align 8, !tbaa !10
  %95 = load ptr, ptr %15, align 8, !tbaa !12
  %96 = call ptr @Abc_NtkCovDeriveCube(ptr noundef %92, ptr noundef %93, ptr noundef %94, ptr noundef %95, i32 noundef 0)
  store ptr %96, ptr %12, align 8, !tbaa !8
  %97 = load ptr, ptr %13, align 8, !tbaa !8
  %98 = load ptr, ptr %12, align 8, !tbaa !8
  call void @Abc_ObjAddFanin(ptr noundef %97, ptr noundef %98)
  br label %99

99:                                               ; preds = %91
  %100 = load ptr, ptr %11, align 8, !tbaa !10
  %101 = getelementptr inbounds nuw %struct.Min_Cube_t_, ptr %100, i32 0, i32 0
  %102 = load ptr, ptr %101, align 8, !tbaa !45
  store ptr %102, ptr %11, align 8, !tbaa !10
  br label %88, !llvm.loop !47

103:                                              ; preds = %88
  %104 = load ptr, ptr %7, align 8, !tbaa !3
  %105 = getelementptr inbounds nuw %struct.Abc_Ntk_t_, ptr %104, i32 0, i32 30
  %106 = load ptr, ptr %105, align 8, !tbaa !24
  %107 = load i32, ptr %17, align 4, !tbaa !14
  %108 = call ptr @Abc_SopCreateXorSpecial(ptr noundef %106, i32 noundef %107)
  %109 = load ptr, ptr %13, align 8, !tbaa !8
  %110 = getelementptr inbounds nuw %struct.Abc_Obj_t_, ptr %109, i32 0, i32 6
  store ptr %108, ptr %110, align 8, !tbaa !20
  br label %111

111:                                              ; preds = %103, %78
  br label %112

112:                                              ; preds = %111, %72
  %113 = load ptr, ptr %13, align 8, !tbaa !8
  %114 = load ptr, ptr %8, align 8, !tbaa !8
  %115 = getelementptr inbounds nuw %struct.Abc_Obj_t_, ptr %114, i32 0, i32 7
  store ptr %113, ptr %115, align 8, !tbaa !20
  %116 = load ptr, ptr %13, align 8, !tbaa !8
  store ptr %116, ptr %5, align 8
  store i32 1, ptr %19, align 4
  br label %117

117:                                              ; preds = %112, %32, %23
  call void @llvm.lifetime.end.p0(i64 4, ptr %18) #7
  call void @llvm.lifetime.end.p0(i64 4, ptr %17) #7
  call void @llvm.lifetime.end.p0(i64 4, ptr %16) #7
  call void @llvm.lifetime.end.p0(i64 8, ptr %15) #7
  call void @llvm.lifetime.end.p0(i64 8, ptr %14) #7
  call void @llvm.lifetime.end.p0(i64 8, ptr %13) #7
  call void @llvm.lifetime.end.p0(i64 8, ptr %12) #7
  call void @llvm.lifetime.end.p0(i64 8, ptr %11) #7
  call void @llvm.lifetime.end.p0(i64 8, ptr %10) #7
  %118 = load ptr, ptr %5, align 8
  ret ptr %118
}