; Function Attrs: nounwind uwtable
define ptr @Abc_NtkCovDeriveNode_rec(ptr noundef readnone captures(none) %0, ptr noundef %1, ptr noundef captures(none) %2, i32 noundef %3) local_unnamed_addr #0 {
  %5 = getelementptr i8, ptr %2, i64 20
  %.val49 = load i32, ptr %5, align 4
  %6 = and i32 %.val49, 15
  switch i32 %6, label %10 [
    i32 5, label %7
    i32 2, label %7
  ]

7:                                                ; preds = %4, %4
  %8 = getelementptr inbounds nuw i8, ptr %2, i64 64
  %9 = load ptr, ptr %8, align 8, !tbaa !34
  br label %57

10:                                               ; preds = %4
  %11 = getelementptr inbounds nuw i8, ptr %2, i64 64
  %12 = load ptr, ptr %11, align 8, !tbaa !34
  %.not46 = icmp eq ptr %12, null
  br i1 %.not46, label %13, label %57

13:                                               ; preds = %10
  %.val50 = load ptr, ptr %2, align 8, !tbaa !13
  %14 = getelementptr i8, ptr %2, i64 16
  %.val51 = load i32, ptr %14, align 8, !tbaa !40
  %15 = getelementptr i8, ptr %.val50, i64 272
  %.val50.val = load ptr, ptr %15, align 8, !tbaa !41
  %16 = getelementptr i8, ptr %.val50.val, i64 24
  %.val50.val.val = load ptr, ptr %16, align 8, !tbaa !42
  %17 = getelementptr i8, ptr %.val50.val.val, i64 8
  %.val50.val.val.val = load ptr, ptr %17, align 8, !tbaa !31
  %18 = sext i32 %.val51 to i64
  %19 = getelementptr inbounds ptr, ptr %.val50.val.val.val, i64 %18
  %20 = load ptr, ptr %19, align 8, !tbaa !33
  %21 = getelementptr inbounds nuw i8, ptr %20, i64 24
  %22 = load ptr, ptr %21, align 8, !tbaa !45
  %23 = getelementptr inbounds nuw i8, ptr %20, i64 16
  %24 = load ptr, ptr %23, align 8, !tbaa !47
  %25 = getelementptr i8, ptr %22, i64 4
  %.val5458 = load i32, ptr %25, align 4, !tbaa !3
  %26 = icmp sgt i32 %.val5458, 0
  br i1 %26, label %.lr.ph, label %.critedge

.lr.ph:                                           ; preds = %13
  %27 = getelementptr i8, ptr %22, i64 8
  %28 = add nsw i32 %3, 1
  br label %29

29:                                               ; preds = %.lr.ph, %29
  %indvars.iv = phi i64 [ 0, %.lr.ph ], [ %indvars.iv.next, %29 ]
  %.val = load ptr, ptr %27, align 8, !tbaa !11
  %30 = getelementptr inbounds nuw i32, ptr %.val, i64 %indvars.iv
  %31 = load i32, ptr %30, align 4, !tbaa !12
  %32 = load ptr, ptr %2, align 8, !tbaa !13
  %33 = getelementptr i8, ptr %32, i64 32
  %.val48 = load ptr, ptr %33, align 8, !tbaa !17
  %34 = getelementptr i8, ptr %.val48, i64 8
  %.val48.val = load ptr, ptr %34, align 8, !tbaa !31
  %35 = sext i32 %31 to i64
  %36 = getelementptr inbounds ptr, ptr %.val48.val, i64 %35
  %37 = load ptr, ptr %36, align 8, !tbaa !33
  %38 = tail call ptr @Abc_NtkCovDeriveNode_rec(ptr noundef %0, ptr noundef %1, ptr noundef %37, i32 noundef %28)
  %indvars.iv.next = add nuw nsw i64 %indvars.iv, 1
  %.val54 = load i32, ptr %25, align 4, !tbaa !3
  %39 = sext i32 %.val54 to i64
  %40 = icmp slt i64 %indvars.iv.next, %39
  br i1 %40, label %29, label %.critedge, !llvm.loop !49

.critedge:                                        ; preds = %29, %13
  %.not5.i = icmp eq ptr %24, null
  br i1 %.not5.i, label %Min_CoverCountCubes.exit.thread, label %.lr.ph.i

.lr.ph.i:                                         ; preds = %.critedge, %.lr.ph.i
  %.07.i = phi i32 [ %41, %.lr.ph.i ], [ 0, %.critedge ]
  %.046.i = phi ptr [ %42, %.lr.ph.i ], [ %24, %.critedge ]
  %41 = add nuw nsw i32 %.07.i, 1
  %42 = load ptr, ptr %.046.i, align 8, !tbaa !50
  %.not.i = icmp eq ptr %42, null
  br i1 %.not.i, label %Min_CoverCountCubes.exit, label %.lr.ph.i, !llvm.loop !52

Min_CoverCountCubes.exit:                         ; preds = %.lr.ph.i
  %cond = icmp eq i32 %.07.i, 0
  br i1 %cond, label %44, label %46

Min_CoverCountCubes.exit.thread:                  ; preds = %.critedge
  %43 = tail call ptr @Abc_NtkCreateNodeConst0(ptr noundef %1) #7
  br label %56

44:                                               ; preds = %Min_CoverCountCubes.exit
  %45 = tail call ptr @Abc_NtkCovDeriveCube(ptr noundef %1, ptr noundef nonnull %2, ptr noundef nonnull %24, ptr noundef %22, i32 noundef 0)
  br label %56

46:                                               ; preds = %Min_CoverCountCubes.exit
  %47 = tail call ptr @Abc_NtkCreateObj(ptr noundef %1, i32 noundef 7) #7
  br label %48

48:                                               ; preds = %46, %48
  %.04260 = phi ptr [ %24, %46 ], [ %50, %48 ]
  %49 = tail call ptr @Abc_NtkCovDeriveCube(ptr noundef %1, ptr noundef nonnull %2, ptr noundef nonnull %.04260, ptr noundef %22, i32 noundef 0)
  tail call void @Abc_ObjAddFanin(ptr noundef %47, ptr noundef %49) #7
  %50 = load ptr, ptr %.04260, align 8, !tbaa !50
  %.not47 = icmp eq ptr %50, null
  br i1 %.not47, label %51, label %48, !llvm.loop !53

51:                                               ; preds = %48
  %52 = getelementptr inbounds nuw i8, ptr %1, i64 256
  %53 = load ptr, ptr %52, align 8, !tbaa !37
  %54 = tail call ptr @Abc_SopCreateXorSpecial(ptr noundef %53, i32 noundef %41) #7
  %55 = getelementptr inbounds nuw i8, ptr %47, i64 56
  store ptr %54, ptr %55, align 8, !tbaa !34
  br label %56

56:                                               ; preds = %44, %51, %Min_CoverCountCubes.exit.thread
  %.043 = phi ptr [ %43, %Min_CoverCountCubes.exit.thread ], [ %45, %44 ], [ %47, %51 ]
  store ptr %.043, ptr %11, align 8, !tbaa !34
  br label %57

57:                                               ; preds = %10, %56, %7
  %.041 = phi ptr [ %9, %7 ], [ %.043, %56 ], [ %12, %10 ]
  ret ptr %.041
}